target datalayout = "e-m:e-p270:32:32-p271:32:32-p272:64:64-i64:64-i128:128-f80:128-n8:16:32:64-S128"
target triple = "x86_64-pc-linux-gnu"

@.str = private unnamed_addr constant [33 x i8] c"\0AERROR - %s line %d failed with:\00", align 1
@.str.1 = private unnamed_addr constant [105 x i8] c"generated/home/dtcxzyw/WorkSpace/Projects/compilers/llvm-opt-benchmark/bench/wolfssl/wolfssl/tests/api.c\00", align 1
@.str.2 = private unnamed_addr constant [16 x i8] c"\0A    expected: \00", align 1
@stdout = external global ptr, align 8
@.str.3 = private unnamed_addr constant [9 x i8] c"%s == %s\00", align 1
@.str.6 = private unnamed_addr constant [16 x i8] c"\0A    result:   \00", align 1
@.str.7 = private unnamed_addr constant [9 x i8] c"%d != %d\00", align 1
@.str.8 = private unnamed_addr constant [3 x i8] c"\0A\0A\00", align 1
@.str.989 = private unnamed_addr constant [15 x i8] c"%s is not null\00", align 1
@.str.1024 = private unnamed_addr constant [2 x i8] c"0\00", align 1
@.str.1552 = private unnamed_addr constant [11 x i8] c"%s is null\00", align 1
@.str.2022 = private unnamed_addr constant [30 x i8] c"wolfSSL_SNI_Status(ssl, type)\00", align 1
@.str.2024 = private unnamed_addr constant [44 x i8] c"wolfSSL_SNI_GetRequest(ssl, type, &request)\00", align 1
@.str.2025 = private unnamed_addr constant [8 x i8] c"request\00", align 1
@.str.2026 = private unnamed_addr constant [16 x i8] c"request => NULL\00", align 1
@.str.2038 = private unnamed_addr constant [21 x i8] c"WOLFSSL_SNI_NO_MATCH\00", align 1
@.str.2039 = private unnamed_addr constant [14 x i8] c"request => %p\00", align 1

; Function Attrs: nounwind uwtable
define internal void @verify_SNI_no_matching(ptr noundef %0) #0 {
  %2 = alloca ptr, align 8
  %3 = alloca i8, align 1
  %4 = alloca ptr, align 8
  %5 = alloca i32, align 4
  %6 = alloca i32, align 4
  %7 = alloca i32, align 4
  %8 = alloca i32, align 4
  %9 = alloca ptr, align 8
  store ptr %0, ptr %2, align 8, !tbaa !85
  call void @llvm.lifetime.start.p0(i64 1, ptr %3) #14
  store i8 0, ptr %3, align 1, !tbaa !58
  call void @llvm.lifetime.start.p0(i64 8, ptr %4) #14
  store ptr %3, ptr %4, align 8, !tbaa !9
  br label %10

10:                                               ; preds = %1
  call void @llvm.lifetime.start.p0(i64 4, ptr %5) #14
  store i32 0, ptr %5, align 4, !tbaa !10
  call void @llvm.lifetime.start.p0(i64 4, ptr %6) #14
  %11 = load ptr, ptr %2, align 8, !tbaa !85
  %12 = load i8, ptr %3, align 1, !tbaa !58
  %13 = call zeroext i8 @wolfSSL_SNI_Status(ptr noundef %11, i8 noundef zeroext %12)
  %14 = zext i8 %13 to i32
  store i32 %14, ptr %6, align 4, !tbaa !10
  %15 = load i32, ptr %5, align 4, !tbaa !10
  %16 = load i32, ptr %6, align 4, !tbaa !10
  %17 = icmp eq i32 %15, %16
  br i1 %17, label %35, label %18

18:                                               ; preds = %10
  br label %19

19:                                               ; preds = %18
  %20 = call i32 (ptr, ...) @printf(ptr noundef @.str, ptr noundef @.str.1, i32 noundef 11484)
  %21 = load ptr, ptr @stdout, align 8, !tbaa !22
  %22 = call i32 @fputs(ptr noundef @.str.2, ptr noundef %21)
  %23 = call i32 (ptr, ...) @printf(ptr noundef @.str.3, ptr noundef @.str.2038, ptr noundef @.str.2022)
  %24 = load ptr, ptr @stdout, align 8, !tbaa !22
  %25 = call i32 @fputs(ptr noundef @.str.6, ptr noundef %24)
  %26 = load i32, ptr %5, align 4, !tbaa !10
  %27 = load i32, ptr %6, align 4, !tbaa !10
  %28 = call i32 (ptr, ...) @printf(ptr noundef @.str.7, i32 noundef %26, i32 noundef %27)
  %29 = load ptr, ptr @stdout, align 8, !tbaa !22
  %30 = call i32 @fputs(ptr noundef @.str.8, ptr noundef %29)
  %31 = load ptr, ptr @stdout, align 8, !tbaa !22
  %32 = call i32 @fflush(ptr noundef %31)
  call void @abort() #18
  unreachable

33:                                               ; No predecessors!
  br label %34

34:                                               ; preds = %33
  br label %35

35:                                               ; preds = %34, %10
  call void @llvm.lifetime.end.p0(i64 4, ptr %6) #14
  call void @llvm.lifetime.end.p0(i64 4, ptr %5) #14
  br label %36

36:                                               ; preds = %35
  br label %37

37:                                               ; preds = %36
  %38 = load ptr, ptr %4, align 8, !tbaa !9
  %39 = icmp ne ptr %38, null
  br i1 %39, label %55, label %40

40:                                               ; preds = %37
  br label %41

41:                                               ; preds = %40
  %42 = call i32 (ptr, ...) @printf(ptr noundef @.str, ptr noundef @.str.1, i32 noundef 11485)
  %43 = load ptr, ptr @stdout, align 8, !tbaa !22
  %44 = call i32 @fputs(ptr noundef @.str.2, ptr noundef %43)
  %45 = call i32 (ptr, ...) @printf(ptr noundef @.str.989, ptr noundef @.str.2025)
  %46 = load ptr, ptr @stdout, align 8, !tbaa !22
  %47 = call i32 @fputs(ptr noundef @.str.6, ptr noundef %46)
  %48 = call i32 (ptr, ...) @printf(ptr noundef @.str.2026)
  %49 = load ptr, ptr @stdout, align 8, !tbaa !22
  %50 = call i32 @fputs(ptr noundef @.str.8, ptr noundef %49)
  %51 = load ptr, ptr @stdout, align 8, !tbaa !22
  %52 = call i32 @fflush(ptr noundef %51)
  call void @abort() #18
  unreachable

53:                                               ; No predecessors!
  br label %54

54:                                               ; preds = %53
  br label %55

55:                                               ; preds = %54, %37
  br label %56

56:                                               ; preds = %55
  call void @llvm.lifetime.start.p0(i64 4, ptr %7) #14
  store i32 0, ptr %7, align 4, !tbaa !10
  call void @llvm.lifetime.start.p0(i64 4, ptr %8) #14
  %57 = load ptr, ptr %2, align 8, !tbaa !85
  %58 = load i8, ptr %3, align 1, !tbaa !58
  %59 = call zeroext i16 @wolfSSL_SNI_GetRequest(ptr noundef %57, i8 noundef zeroext %58, ptr noundef %4)
  %60 = zext i16 %59 to i32
  store i32 %60, ptr %8, align 4, !tbaa !10
  %61 = load i32, ptr %7, align 4, !tbaa !10
  %62 = load i32, ptr %8, align 4, !tbaa !10
  %63 = icmp eq i32 %61, %62
  br i1 %63, label %81, label %64

64:                                               ; preds = %56
  br label %65

65:                                               ; preds = %64
  %66 = call i32 (ptr, ...) @printf(ptr noundef @.str, ptr noundef @.str.1, i32 noundef 11486)
  %67 = load ptr, ptr @stdout, align 8, !tbaa !22
  %68 = call i32 @fputs(ptr noundef @.str.2, ptr noundef %67)
  %69 = call i32 (ptr, ...) @printf(ptr noundef @.str.3, ptr noundef @.str.1024, ptr noundef @.str.2024)
  %70 = load ptr, ptr @stdout, align 8, !tbaa !22
  %71 = call i32 @fputs(ptr noundef @.str.6, ptr noundef %70)
  %72 = load i32, ptr %7, align 4, !tbaa !10
  %73 = load i32, ptr %8, align 4, !tbaa !10
  %74 = call i32 (ptr, ...) @printf(ptr noundef @.str.7, i32 noundef %72, i32 noundef %73)
  %75 = load ptr, ptr @stdout, align 8, !tbaa !22
  %76 = call i32 @fputs(ptr noundef @.str.8, ptr noundef %75)
  %77 = load ptr, ptr @stdout, align 8, !tbaa !22
  %78 = call i32 @fflush(ptr noundef %77)
  call void @abort() #18
  unreachable

79:                                               ; No predecessors!
  br label %80

80:                                               ; preds = %79
  br label %81

81:                                               ; preds = %80, %56
  call void @llvm.lifetime.end.p0(i64 4, ptr %8) #14
  call void @llvm.lifetime.end.p0(i64 4, ptr %7) #14
  br label %82

82:                                               ; preds = %81
  br label %83

83:                                               ; preds = %82
  br label %84

84:                                               ; preds = %83
  call void @llvm.lifetime.start.p0(i64 8, ptr %9) #14
  %85 = load ptr, ptr %4, align 8, !tbaa !9
  store ptr %85, ptr %9, align 8, !tbaa !9
  %86 = load ptr, ptr %9, align 8, !tbaa !9
  %87 = icmp ne ptr %86, null
  br i1 %87, label %88, label %104

88:                                               ; preds = %84
  br label %89

89:                                               ; preds = %88
  %90 = call i32 (ptr, ...) @printf(ptr noundef @.str, ptr noundef @.str.1, i32 noundef 11487)
  %91 = load ptr, ptr @stdout, align 8, !tbaa !22
  %92 = call i32 @fputs(ptr noundef @.str.2, ptr noundef %91)
  %93 = call i32 (ptr, ...) @printf(ptr noundef @.str.1552, ptr noundef @.str.2025)
  %94 = load ptr, ptr @stdout, align 8, !tbaa !22
  %95 = call i32 @fputs(ptr noundef @.str.6, ptr noundef %94)
  %96 = load ptr, ptr %9, align 8, !tbaa !9
  %97 = call i32 (ptr, ...) @printf(ptr noundef @.str.2039, ptr noundef %96)
  %98 = load ptr, ptr @stdout, align 8, !tbaa !22
  %99 = call i32 @fputs(ptr noundef @.str.8, ptr noundef %98)
  %100 = load ptr, ptr @stdout, align 8, !tbaa !22
  %101 = call i32 @fflush(ptr noundef %100)
  call void @abort() #18
  unreachable

102:                                              ; No predecessors!
  br label %103

103:                                              ; preds = %102
  br label %104

104:                                              ; preds = %103, %84
  call void @llvm.lifetime.end.p0(i64 8, ptr %9) #14
  br label %105

105:                                              ; preds = %104
  br label %106

106:                                              ; preds = %105
  call void @llvm.lifetime.end.p0(i64 8, ptr %4) #14
  call void @llvm.lifetime.end.p0(i64 1, ptr %3) #14
  ret void
}