; Function Attrs: nounwind uwtable
define internal void @verify_SNI_no_matching(ptr noundef %0) #0 {
  %2 = alloca i8, align 1
  %3 = alloca ptr, align 8
  call void @llvm.lifetime.start.p0(i64 1, ptr nonnull %2) #27
  store i8 0, ptr %2, align 1, !tbaa !39
  call void @llvm.lifetime.start.p0(i64 8, ptr nonnull %3) #27
  store ptr %2, ptr %3, align 8, !tbaa !208
  %4 = call zeroext i8 @wolfSSL_SNI_Status(ptr noundef %0, i8 noundef zeroext 0) #27
  %5 = icmp eq i8 %4, 0
  br i1 %5, label %19, label %6

6:                                                ; preds = %1
  %7 = zext i8 %4 to i32
  %8 = call i32 (ptr, ...) @printf(ptr noundef nonnull dereferenceable(1) @.str, ptr noundef nonnull @.str.1, i32 noundef 11484)
  %9 = load ptr, ptr @stdout, align 8, !tbaa !22
  %10 = call i64 @fwrite(ptr nonnull @.str.2, i64 15, i64 1, ptr %9)
  %11 = call i32 (ptr, ...) @printf(ptr noundef nonnull dereferenceable(1) @.str.3, ptr noundef nonnull @.str.2038, ptr noundef nonnull @.str.2022)
  %12 = load ptr, ptr @stdout, align 8, !tbaa !22
  %13 = call i64 @fwrite(ptr nonnull @.str.6, i64 15, i64 1, ptr %12)
  %14 = call i32 (ptr, ...) @printf(ptr noundef nonnull dereferenceable(1) @.str.7, i32 noundef 0, i32 noundef %7)
  %15 = load ptr, ptr @stdout, align 8, !tbaa !22
  %16 = call i64 @fwrite(ptr nonnull @.str.8, i64 2, i64 1, ptr %15)
  %17 = load ptr, ptr @stdout, align 8, !tbaa !22
  %18 = call i32 @fflush(ptr noundef %17)
  call void @abort() #31
  unreachable

19:                                               ; preds = %1
  %20 = load i8, ptr %2, align 1, !tbaa !39
  %21 = call zeroext i16 @wolfSSL_SNI_GetRequest(ptr noundef %0, i8 noundef zeroext %20, ptr noundef nonnull %3) #27
  %22 = icmp eq i16 %21, 0
  br i1 %22, label %36, label %23

23:                                               ; preds = %19
  %24 = zext i16 %21 to i32
  %25 = call i32 (ptr, ...) @printf(ptr noundef nonnull dereferenceable(1) @.str, ptr noundef nonnull @.str.1, i32 noundef 11486)
  %26 = load ptr, ptr @stdout, align 8, !tbaa !22
  %27 = call i64 @fwrite(ptr nonnull @.str.2, i64 15, i64 1, ptr %26)
  %28 = call i32 (ptr, ...) @printf(ptr noundef nonnull dereferenceable(1) @.str.3, ptr noundef nonnull @.str.1024, ptr noundef nonnull @.str.2024)
  %29 = load ptr, ptr @stdout, align 8, !tbaa !22
  %30 = call i64 @fwrite(ptr nonnull @.str.6, i64 15, i64 1, ptr %29)
  %31 = call i32 (ptr, ...) @printf(ptr noundef nonnull dereferenceable(1) @.str.7, i32 noundef 0, i32 noundef %24)
  %32 = load ptr, ptr @stdout, align 8, !tbaa !22
  %33 = call i64 @fwrite(ptr nonnull @.str.8, i64 2, i64 1, ptr %32)
  %34 = load ptr, ptr @stdout, align 8, !tbaa !22
  %35 = call i32 @fflush(ptr noundef %34)
  call void @abort() #31
  unreachable

36:                                               ; preds = %19
  %37 = load ptr, ptr %3, align 8, !tbaa !208
  %.not13 = icmp eq ptr %37, null
  br i1 %.not13, label %50, label %38

38:                                               ; preds = %36
  %39 = call i32 (ptr, ...) @printf(ptr noundef nonnull dereferenceable(1) @.str, ptr noundef nonnull @.str.1, i32 noundef 11487)
  %40 = load ptr, ptr @stdout, align 8, !tbaa !22
  %41 = call i64 @fwrite(ptr nonnull @.str.2, i64 15, i64 1, ptr %40)
  %42 = call i32 (ptr, ...) @printf(ptr noundef nonnull dereferenceable(1) @.str.1552, ptr noundef nonnull @.str.2025)
  %43 = load ptr, ptr @stdout, align 8, !tbaa !22
  %44 = call i64 @fwrite(ptr nonnull @.str.6, i64 15, i64 1, ptr %43)
  %45 = call i32 (ptr, ...) @printf(ptr noundef nonnull dereferenceable(1) @.str.2039, ptr noundef nonnull %37)
  %46 = load ptr, ptr @stdout, align 8, !tbaa !22
  %47 = call i64 @fwrite(ptr nonnull @.str.8, i64 2, i64 1, ptr %46)
  %48 = load ptr, ptr @stdout, align 8, !tbaa !22
  %49 = call i32 @fflush(ptr noundef %48)
  call void @abort() #31
  unreachable

50:                                               ; preds = %36
  call void @llvm.lifetime.end.p0(i64 8, ptr nonnull %3) #27
  call void @llvm.lifetime.end.p0(i64 1, ptr nonnull %2) #27
  ret void
}